target datalayout = "e-m:e-p270:32:32-p271:32:32-p272:64:64-i64:64-i128:128-f80:128-n8:16:32:64-S128"
target triple = "x86_64-pc-linux-gnu"

%struct.strbuf = type { i64, i64, ptr }
%struct.column = type { ptr, i16 }
%struct.graph_line = type { ptr, i64 }

@column_colors = internal global ptr null, align 8
@column_colors_max = internal global i16 0, align 2

; Function Attrs: inlinehint nounwind uwtable
define internal i64 @strbuf_avail(ptr noundef %0) #4 {
  %2 = alloca ptr, align 8
  store ptr %0, ptr %2, align 8, !tbaa !123
  %3 = load ptr, ptr %2, align 8, !tbaa !123
  %4 = getelementptr inbounds nuw %struct.strbuf, ptr %3, i32 0, i32 0
  %5 = load i64, ptr %4, align 8, !tbaa !147
  %6 = icmp ne i64 %5, 0
  br i1 %6, label %7, label %16

7:                                                ; preds = %1
  %8 = load ptr, ptr %2, align 8, !tbaa !123
  %9 = getelementptr inbounds nuw %struct.strbuf, ptr %8, i32 0, i32 0
  %10 = load i64, ptr %9, align 8, !tbaa !147
  %11 = load ptr, ptr %2, align 8, !tbaa !123
  %12 = getelementptr inbounds nuw %struct.strbuf, ptr %11, i32 0, i32 1
  %13 = load i64, ptr %12, align 8, !tbaa !143
  %14 = sub i64 %10, %13
  %15 = sub i64 %14, 1
  br label %17

16:                                               ; preds = %1
  br label %17

17:                                               ; preds = %16, %7
  %18 = phi i64 [ %15, %7 ], [ 0, %16 ]
  ret i64 %18
}

; Function Attrs: inlinehint nounwind uwtable
define internal void @strbuf_addch(ptr noundef %0, i32 noundef %1) #4 {
  %3 = alloca ptr, align 8
  %4 = alloca i32, align 4
  store ptr %0, ptr %3, align 8, !tbaa !123
  store i32 %1, ptr %4, align 4, !tbaa !73
  %5 = load ptr, ptr %3, align 8, !tbaa !123
  %6 = call i64 @strbuf_avail(ptr noundef %5)
  %7 = icmp ne i64 %6, 0
  br i1 %7, label %10, label %8

8:                                                ; preds = %2
  %9 = load ptr, ptr %3, align 8, !tbaa !123
  call void @strbuf_grow(ptr noundef %9, i64 noundef 1)
  br label %10

10:                                               ; preds = %8, %2
  %11 = load i32, ptr %4, align 4, !tbaa !73
  %12 = trunc i32 %11 to i8
  %13 = load ptr, ptr %3, align 8, !tbaa !123
  %14 = getelementptr inbounds nuw %struct.strbuf, ptr %13, i32 0, i32 2
  %15 = load ptr, ptr %14, align 8, !tbaa !142
  %16 = load ptr, ptr %3, align 8, !tbaa !123
  %17 = getelementptr inbounds nuw %struct.strbuf, ptr %16, i32 0, i32 1
  %18 = load i64, ptr %17, align 8, !tbaa !143
  %19 = add i64 %18, 1
  store i64 %19, ptr %17, align 8, !tbaa !143
  %20 = getelementptr inbounds nuw i8, ptr %15, i64 %18
  store i8 %12, ptr %20, align 1, !tbaa !134
  %21 = load ptr, ptr %3, align 8, !tbaa !123
  %22 = getelementptr inbounds nuw %struct.strbuf, ptr %21, i32 0, i32 2
  %23 = load ptr, ptr %22, align 8, !tbaa !142
  %24 = load ptr, ptr %3, align 8, !tbaa !123
  %25 = getelementptr inbounds nuw %struct.strbuf, ptr %24, i32 0, i32 1
  %26 = load i64, ptr %25, align 8, !tbaa !143
  %27 = getelementptr inbounds nuw i8, ptr %23, i64 %26
  store i8 0, ptr %27, align 1, !tbaa !134
  ret void
}

; Function Attrs: inlinehint nounwind uwtable
define internal void @strbuf_addstr(ptr noundef %0, ptr noundef %1) #4 {
  %3 = alloca ptr, align 8
  %4 = alloca ptr, align 8
  store ptr %0, ptr %3, align 8, !tbaa !123
  store ptr %1, ptr %4, align 8, !tbaa !74
  %5 = load ptr, ptr %3, align 8, !tbaa !123
  %6 = load ptr, ptr %4, align 8, !tbaa !74
  %7 = load ptr, ptr %4, align 8, !tbaa !74
  %8 = call i64 @strlen(ptr noundef %7) #9
  call void @strbuf_add(ptr noundef %5, ptr noundef %6, i64 noundef %8)
  ret void
}

; Function Attrs: nounwind uwtable
define internal ptr @column_get_color_code(i16 noundef zeroext %0) #0 {
  %2 = alloca i16, align 2
  store i16 %0, ptr %2, align 2, !tbaa !9
  %3 = load ptr, ptr @column_colors, align 8, !tbaa !4
  %4 = load i16, ptr %2, align 2, !tbaa !9
  %5 = zext i16 %4 to i64
  %6 = getelementptr inbounds nuw ptr, ptr %3, i64 %5
  %7 = load ptr, ptr %6, align 8, !tbaa !74
  ret ptr %7
}

; Function Attrs: inlinehint nounwind uwtable
define internal void @graph_line_addch(ptr noundef %0, i32 noundef %1) #4 {
  %3 = alloca ptr, align 8
  %4 = alloca i32, align 4
  store ptr %0, ptr %3, align 8, !tbaa !128
  store i32 %1, ptr %4, align 4, !tbaa !73
  %5 = load ptr, ptr %3, align 8, !tbaa !128
  %6 = getelementptr inbounds nuw %struct.graph_line, ptr %5, i32 0, i32 0
  %7 = load ptr, ptr %6, align 8, !tbaa !125
  %8 = load i32, ptr %4, align 4, !tbaa !73
  call void @strbuf_addch(ptr noundef %7, i32 noundef %8)
  %9 = load ptr, ptr %3, align 8, !tbaa !128
  %10 = getelementptr inbounds nuw %struct.graph_line, ptr %9, i32 0, i32 1
  %11 = load i64, ptr %10, align 8, !tbaa !127
  %12 = add i64 %11, 1
  store i64 %12, ptr %10, align 8, !tbaa !127
  ret void
}

; Function Attrs: inlinehint nounwind uwtable
define internal void @graph_line_addcolor(ptr noundef %0, i16 noundef zeroext %1) #4 {
  %3 = alloca ptr, align 8
  %4 = alloca i16, align 2
  store ptr %0, ptr %3, align 8, !tbaa !128
  store i16 %1, ptr %4, align 2, !tbaa !9
  %5 = load ptr, ptr %3, align 8, !tbaa !128
  %6 = getelementptr inbounds nuw %struct.graph_line, ptr %5, i32 0, i32 0
  %7 = load ptr, ptr %6, align 8, !tbaa !125
  %8 = load i16, ptr %4, align 2, !tbaa !9
  %9 = call ptr @column_get_color_code(i16 noundef zeroext %8)
  call void @strbuf_addstr(ptr noundef %7, ptr noundef %9)
  ret void
}

; Function Attrs: nounwind uwtable
define internal void @graph_line_write_column(ptr noundef %0, ptr noundef %1, i8 noundef signext %2) #0 {
  %4 = alloca ptr, align 8
  %5 = alloca ptr, align 8
  %6 = alloca i8, align 1
  store ptr %0, ptr %4, align 8, !tbaa !128
  store ptr %1, ptr %5, align 8, !tbaa !131
  store i8 %2, ptr %6, align 1, !tbaa !134
  %7 = load ptr, ptr %5, align 8, !tbaa !131
  %8 = getelementptr inbounds nuw %struct.column, ptr %7, i32 0, i32 1
  %9 = load i16, ptr %8, align 8, !tbaa !152
  %10 = zext i16 %9 to i32
  %11 = load i16, ptr @column_colors_max, align 2, !tbaa !9
  %12 = zext i16 %11 to i32
  %13 = icmp slt i32 %10, %12
  br i1 %13, label %14, label %19

14:                                               ; preds = %3
  %15 = load ptr, ptr %4, align 8, !tbaa !128
  %16 = load ptr, ptr %5, align 8, !tbaa !131
  %17 = getelementptr inbounds nuw %struct.column, ptr %16, i32 0, i32 1
  %18 = load i16, ptr %17, align 8, !tbaa !152
  call void @graph_line_addcolor(ptr noundef %15, i16 noundef zeroext %18)
  br label %19

19:                                               ; preds = %14, %3
  %20 = load ptr, ptr %4, align 8, !tbaa !128
  %21 = load i8, ptr %6, align 1, !tbaa !134
  %22 = sext i8 %21 to i32
  call void @graph_line_addch(ptr noundef %20, i32 noundef %22)
  %23 = load ptr, ptr %5, align 8, !tbaa !131
  %24 = getelementptr inbounds nuw %struct.column, ptr %23, i32 0, i32 1
  %25 = load i16, ptr %24, align 8, !tbaa !152
  %26 = zext i16 %25 to i32
  %27 = load i16, ptr @column_colors_max, align 2, !tbaa !9
  %28 = zext i16 %27 to i32
  %29 = icmp slt i32 %26, %28
  br i1 %29, label %30, label %33

30:                                               ; preds = %19
  %31 = load ptr, ptr %4, align 8, !tbaa !128
  %32 = load i16, ptr @column_colors_max, align 2, !tbaa !9
  call void @graph_line_addcolor(ptr noundef %31, i16 noundef zeroext %32)
  br label %33

33:                                               ; preds = %30, %19
  ret void
}