; Function Attrs: nounwind uwtable
define internal fastcc void @graph_line_write_column(ptr noundef nonnull captures(none) %0, ptr noundef readonly captures(none) %1, i8 noundef signext %2) unnamed_addr #2 {
  %4 = getelementptr inbounds nuw i8, ptr %1, i64 8
  %5 = load i16, ptr %4, align 8, !tbaa !116
  %6 = load i16, ptr @column_colors_max, align 2, !tbaa !9
  %7 = icmp ult i16 %5, %6
  br i1 %7, label %8, label %14

8:                                                ; preds = %3
  %.val = load ptr, ptr %0, align 8, !tbaa !122
  %9 = load ptr, ptr @column_colors, align 8, !tbaa !4
  %10 = zext i16 %5 to i64
  %11 = getelementptr inbounds nuw ptr, ptr %9, i64 %10
  %12 = load ptr, ptr %11, align 8, !tbaa !32
  %13 = tail call i64 @strlen(ptr noundef nonnull dereferenceable(1) %12) #14
  tail call void @strbuf_add(ptr noundef %.val, ptr noundef nonnull %12, i64 noundef %13) #15
  br label %14

14:                                               ; preds = %8, %3
  %15 = load ptr, ptr %0, align 8, !tbaa !122
  %16 = load i64, ptr %15, align 8, !tbaa !126
  %.not.i.i.i = icmp eq i64 %16, 0
  br i1 %.not.i.i.i, label %strbuf_avail.exit.thread.i.i, label %strbuf_avail.exit.i.i

strbuf_avail.exit.i.i:                            ; preds = %14
  %17 = getelementptr inbounds nuw i8, ptr %15, i64 8
  %18 = load i64, ptr %17, align 8, !tbaa !27
  %.neg.i.i = add i64 %18, 1
  %.not.i.i = icmp eq i64 %16, %.neg.i.i
  br i1 %.not.i.i, label %strbuf_avail.exit.thread.i.i, label %graph_line_addch.exit

strbuf_avail.exit.thread.i.i:                     ; preds = %strbuf_avail.exit.i.i, %14
  tail call void @strbuf_grow(ptr noundef nonnull %15, i64 noundef 1) #15
  %.phi.trans.insert.i.i = getelementptr inbounds nuw i8, ptr %15, i64 8
  %.pre.i.i = load i64, ptr %.phi.trans.insert.i.i, align 8, !tbaa !27
  %.pre7.i.i = add i64 %.pre.i.i, 1
  br label %graph_line_addch.exit

graph_line_addch.exit:                            ; preds = %strbuf_avail.exit.i.i, %strbuf_avail.exit.thread.i.i
  %.pre-phi.i.i = phi i64 [ %.pre7.i.i, %strbuf_avail.exit.thread.i.i ], [ %.neg.i.i, %strbuf_avail.exit.i.i ]
  %19 = phi i64 [ %.pre.i.i, %strbuf_avail.exit.thread.i.i ], [ %18, %strbuf_avail.exit.i.i ]
  %20 = getelementptr inbounds nuw i8, ptr %15, i64 16
  %21 = load ptr, ptr %20, align 8, !tbaa !29
  %22 = getelementptr inbounds nuw i8, ptr %15, i64 8
  store i64 %.pre-phi.i.i, ptr %22, align 8, !tbaa !27
  %23 = getelementptr inbounds nuw i8, ptr %21, i64 %19
  store i8 %2, ptr %23, align 1, !tbaa !30
  %24 = load ptr, ptr %20, align 8, !tbaa !29
  %25 = load i64, ptr %22, align 8, !tbaa !27
  %26 = getelementptr inbounds nuw i8, ptr %24, i64 %25
  store i8 0, ptr %26, align 1, !tbaa !30
  %27 = getelementptr inbounds nuw i8, ptr %0, i64 8
  %28 = load i64, ptr %27, align 8, !tbaa !125
  %29 = add i64 %28, 1
  store i64 %29, ptr %27, align 8, !tbaa !125
  %30 = load i16, ptr %4, align 8, !tbaa !116
  %31 = load i16, ptr @column_colors_max, align 2, !tbaa !9
  %32 = icmp ult i16 %30, %31
  br i1 %32, label %33, label %39

33:                                               ; preds = %graph_line_addch.exit
  %.val6 = load ptr, ptr %0, align 8, !tbaa !122
  %34 = load ptr, ptr @column_colors, align 8, !tbaa !4
  %35 = zext i16 %31 to i64
  %36 = getelementptr inbounds nuw ptr, ptr %34, i64 %35
  %37 = load ptr, ptr %36, align 8, !tbaa !32
  %38 = tail call i64 @strlen(ptr noundef nonnull dereferenceable(1) %37) #14
  tail call void @strbuf_add(ptr noundef %.val6, ptr noundef nonnull %37, i64 noundef %38) #15
  br label %39

39:                                               ; preds = %33, %graph_line_addch.exit
  ret void
}